; Function Attrs: mustprogress nofree nounwind willreturn memory(read, argmem: readwrite, inaccessiblemem: none) uwtable
define dso_local noundef zeroext i1 @consume(ptr nocapture noundef writeonly %rest, ptr noundef %tok, ptr nocapture noundef readonly %str) local_unnamed_addr #6 {
entry:
  %loc.i = getelementptr inbounds %struct.Token, ptr %tok, i64 0, i32 4
  %0 = load ptr, ptr %loc.i, align 16
  %len.i = getelementptr inbounds %struct.Token, ptr %tok, i64 0, i32 5
  %1 = load i32, ptr %len.i, align 8
  %conv.i = sext i32 %1 to i64
  %bcmp.i = tail call i32 @bcmp(ptr %0, ptr %str, i64 %conv.i)
  %cmp.i = icmp eq i32 %bcmp.i, 0
  br i1 %cmp.i, label %equal.exit, label %return

equal.exit:                                       ; preds = %entry
  %arrayidx.i = getelementptr inbounds i8, ptr %str, i64 %conv.i
  %2 = load i8, ptr %arrayidx.i, align 1
  %cmp4.i = icmp eq i8 %2, 0
  br i1 %cmp4.i, label %if.then, label %return

if.then:                                          ; preds = %equal.exit
  %next = getelementptr inbounds %struct.Token, ptr %tok, i64 0, i32 1
  %3 = load ptr, ptr %next, align 8
  br label %return

return:                                           ; preds = %entry, %equal.exit, %if.then
  %4 = phi i1 [ true, %if.then ], [ false, %equal.exit ], [ false, %entry ]
  %storemerge = phi ptr [ %3, %if.then ], [ %tok, %equal.exit ], [ %tok, %entry ]
  store ptr %storemerge, ptr %rest, align 8
  ret i1 %4
}